target datalayout = "e-m:e-p270:32:32-p271:32:32-p272:64:64-i64:64-i128:128-f80:128-n8:16:32:64-S128"
target triple = "x86_64-pc-linux-gnu"

; Function Attrs: mustprogress uwtable
define internal void @_ZN12_GLOBAL__N_135Int128_IntrinsicConversionTest_TestC2Ev(ptr noundef nonnull align 8 dereferenceable(16) %0) unnamed_addr #4 align 2 {
  %2 = alloca ptr, align 8
  store ptr %0, ptr %2, align 8, !tbaa !840
  %3 = load ptr, ptr %2, align 8
  call void @_ZN7testing4TestC2Ev(ptr noundef nonnull align 8 dereferenceable(16) %3)
  store ptr getelementptr inbounds inrange(-16, 48) ({ [8 x ptr] }, ptr @_ZTVN12_GLOBAL__N_135Int128_IntrinsicConversionTest_TestE, i32 0, i32 0, i32 2), ptr %3, align 8, !tbaa !37
  ret void
}

; Function Attrs: mustprogress uwtable
define internal noundef ptr @_ZN7testing8internal15TestFactoryImplIN12_GLOBAL__N_135Int128_IntrinsicConversionTest_TestEE10CreateTestEv(ptr noundef nonnull align 8 dereferenceable(8) %0) unnamed_addr #4 align 2 personality ptr @__gxx_personality_v0 {
  %2 = alloca ptr, align 8
  %3 = alloca ptr, align 8
  %4 = alloca i32, align 4
  store ptr %0, ptr %2, align 8, !tbaa !77
  %5 = call noalias noundef nonnull ptr @_Znwm(i64 noundef 16) #22
  invoke void @_ZN12_GLOBAL__N_135Int128_IntrinsicConversionTest_TestC2Ev(ptr noundef nonnull align 8 dereferenceable(16) %5)
          to label %6 unwind label %7

6:                                                ; preds = %1
  ret ptr %5

7:                                                ; preds = %1
  %8 = landingpad { ptr, i32 }
          cleanup
  %9 = extractvalue { ptr, i32 } %8, 0
  store ptr %9, ptr %3, align 8
  %10 = extractvalue { ptr, i32 } %8, 1
  store i32 %10, ptr %4, align 4
  call void @_ZdlPvm(ptr noundef %5, i64 noundef 16) #23
  br label %11

11:                                               ; preds = %7
  %12 = load ptr, ptr %3, align 8
  %13 = load i32, ptr %4, align 4
  %14 = insertvalue { ptr, i32 } poison, ptr %12, 0
  %15 = insertvalue { ptr, i32 } %14, i32 %13, 1
  resume { ptr, i32 } %15
}